target datalayout = "e-m:e-p270:32:32-p271:32:32-p272:64:64-i64:64-i128:128-f80:128-n8:16:32:64-S128"
target triple = "x86_64-pc-linux-gnu"

%"class.gmx::AwhDimParams" = type { i32, i32, double, double, double, double, double, double, double }
%class.anon = type { i8 }

@.str.36 = private unnamed_addr constant [22 x i8] c"serializer->reading()\00", align 1
@.str.37 = private unnamed_addr constant [58 x i8] c"Can not use writing serializer for creating datastructure\00", align 1
@"__PRETTY_FUNCTION__._ZZN3gmx12AwhDimParamsC1EPNS_11ISerializerEENK3$_0clEv" = private unnamed_addr constant [91 x i8] c"auto gmx::AwhDimParams::AwhDimParams(ISerializer *)::(anonymous class)::operator()() const\00", align 1
@.str.38 = private unnamed_addr constant [140 x i8] c"generated/home/dtcxzyw/WorkSpace/Projects/compilers/llvm-opt-benchmark/bench/gromacs/gromacs/src/gromacs/applied_forces/awh/read_params.cpp\00", align 1

; Function Attrs: mustprogress uwtable
define linkonce_odr void @_ZN3gmx11ISerializer11doEnumAsIntINS_25AwhCoordinateProviderTypeEEEvPT_(ptr noundef nonnull align 8 dereferenceable(8) %0, ptr noundef %1) #2 comdat align 2 {
  %3 = alloca ptr, align 8
  %4 = alloca ptr, align 8
  %5 = alloca i32, align 4
  store ptr %0, ptr %3, align 8
  store ptr %1, ptr %4, align 8
  %6 = load ptr, ptr %3, align 8
  %7 = load ptr, ptr %4, align 8
  %8 = load i32, ptr %7, align 4
  store i32 %8, ptr %5, align 4
  %9 = load ptr, ptr %6, align 8
  %10 = getelementptr inbounds ptr, ptr %9, i64 7
  %11 = load ptr, ptr %10, align 8
  call void %11(ptr noundef nonnull align 8 dereferenceable(8) %6, ptr noundef %5)
  %12 = load i32, ptr %5, align 4
  %13 = load ptr, ptr %4, align 8
  store i32 %12, ptr %13, align 4
  ret void
}

; Function Attrs: mustprogress uwtable
define internal void @"_ZZN3gmx12AwhDimParamsC1EPNS_11ISerializerEENK3$_0clEv"(ptr noundef nonnull align 1 dereferenceable(1) %0) #2 align 2 {
  %2 = alloca ptr, align 8
  store ptr %0, ptr %2, align 8
  call void @_ZN3gmx8internal13assertHandlerEPKcS2_S2_S2_i(ptr noundef @.str.36, ptr noundef @.str.37, ptr noundef @"__PRETTY_FUNCTION__._ZZN3gmx12AwhDimParamsC1EPNS_11ISerializerEENK3$_0clEv", ptr noundef @.str.38, i32 noundef 724) #12
  unreachable
}

; Function Attrs: mustprogress uwtable
define void @_ZN3gmx12AwhDimParamsC2EPNS_11ISerializerE(ptr noundef nonnull align 8 dereferenceable(64) %0, ptr noundef %1) unnamed_addr #2 align 2 {
  %3 = alloca ptr, align 8
  %4 = alloca ptr, align 8
  %5 = alloca %class.anon, align 1
  store ptr %0, ptr %3, align 8
  store ptr %1, ptr %4, align 8
  %6 = load ptr, ptr %3, align 8
  %7 = getelementptr inbounds %"class.gmx::AwhDimParams", ptr %6, i32 0, i32 1
  store i32 0, ptr %7, align 4
  %8 = getelementptr inbounds %"class.gmx::AwhDimParams", ptr %6, i32 0, i32 2
  store double 0.000000e+00, ptr %8, align 8
  %9 = getelementptr inbounds %"class.gmx::AwhDimParams", ptr %6, i32 0, i32 3
  store double 0.000000e+00, ptr %9, align 8
  %10 = getelementptr inbounds %"class.gmx::AwhDimParams", ptr %6, i32 0, i32 4
  store double 0.000000e+00, ptr %10, align 8
  %11 = getelementptr inbounds %"class.gmx::AwhDimParams", ptr %6, i32 0, i32 5
  store double 0.000000e+00, ptr %11, align 8
  %12 = getelementptr inbounds %"class.gmx::AwhDimParams", ptr %6, i32 0, i32 6
  store double 0.000000e+00, ptr %12, align 8
  %13 = getelementptr inbounds %"class.gmx::AwhDimParams", ptr %6, i32 0, i32 7
  store double 0.000000e+00, ptr %13, align 8
  %14 = getelementptr inbounds %"class.gmx::AwhDimParams", ptr %6, i32 0, i32 8
  store double 0.000000e+00, ptr %14, align 8
  %15 = load ptr, ptr %4, align 8
  %16 = load ptr, ptr %15, align 8
  %17 = getelementptr inbounds ptr, ptr %16, i64 2
  %18 = load ptr, ptr %17, align 8
  %19 = call noundef zeroext i1 %18(ptr noundef nonnull align 8 dereferenceable(8) %15)
  br i1 %19, label %20, label %21

20:                                               ; preds = %2
  br label %22

21:                                               ; preds = %2
  call void @"_ZZN3gmx12AwhDimParamsC1EPNS_11ISerializerEENK3$_0clEv"(ptr noundef nonnull align 1 dereferenceable(1) %5)
  br label %22

22:                                               ; preds = %21, %20
  %23 = load ptr, ptr %4, align 8
  %24 = getelementptr inbounds %"class.gmx::AwhDimParams", ptr %6, i32 0, i32 0
  call void @_ZN3gmx11ISerializer11doEnumAsIntINS_25AwhCoordinateProviderTypeEEEvPT_(ptr noundef nonnull align 8 dereferenceable(8) %23, ptr noundef %24)
  %25 = load ptr, ptr %4, align 8
  %26 = getelementptr inbounds %"class.gmx::AwhDimParams", ptr %6, i32 0, i32 1
  %27 = load ptr, ptr %25, align 8
  %28 = getelementptr inbounds ptr, ptr %27, i64 7
  %29 = load ptr, ptr %28, align 8
  call void %29(ptr noundef nonnull align 8 dereferenceable(8) %25, ptr noundef %26)
  %30 = load ptr, ptr %4, align 8
  %31 = getelementptr inbounds %"class.gmx::AwhDimParams", ptr %6, i32 0, i32 2
  %32 = load ptr, ptr %30, align 8
  %33 = getelementptr inbounds ptr, ptr %32, i64 11
  %34 = load ptr, ptr %33, align 8
  call void %34(ptr noundef nonnull align 8 dereferenceable(8) %30, ptr noundef %31)
  %35 = load ptr, ptr %4, align 8
  %36 = getelementptr inbounds %"class.gmx::AwhDimParams", ptr %6, i32 0, i32 3
  %37 = load ptr, ptr %35, align 8
  %38 = getelementptr inbounds ptr, ptr %37, i64 11
  %39 = load ptr, ptr %38, align 8
  call void %39(ptr noundef nonnull align 8 dereferenceable(8) %35, ptr noundef %36)
  %40 = load ptr, ptr %4, align 8
  %41 = getelementptr inbounds %"class.gmx::AwhDimParams", ptr %6, i32 0, i32 4
  %42 = load ptr, ptr %40, align 8
  %43 = getelementptr inbounds ptr, ptr %42, i64 11
  %44 = load ptr, ptr %43, align 8
  call void %44(ptr noundef nonnull align 8 dereferenceable(8) %40, ptr noundef %41)
  %45 = load ptr, ptr %4, align 8
  %46 = getelementptr inbounds %"class.gmx::AwhDimParams", ptr %6, i32 0, i32 5
  %47 = load ptr, ptr %45, align 8
  %48 = getelementptr inbounds ptr, ptr %47, i64 11
  %49 = load ptr, ptr %48, align 8
  call void %49(ptr noundef nonnull align 8 dereferenceable(8) %45, ptr noundef %46)
  %50 = load ptr, ptr %4, align 8
  %51 = getelementptr inbounds %"class.gmx::AwhDimParams", ptr %6, i32 0, i32 6
  %52 = load ptr, ptr %50, align 8
  %53 = getelementptr inbounds ptr, ptr %52, i64 11
  %54 = load ptr, ptr %53, align 8
  call void %54(ptr noundef nonnull align 8 dereferenceable(8) %50, ptr noundef %51)
  %55 = load ptr, ptr %4, align 8
  %56 = getelementptr inbounds %"class.gmx::AwhDimParams", ptr %6, i32 0, i32 7
  %57 = load ptr, ptr %55, align 8
  %58 = getelementptr inbounds ptr, ptr %57, i64 11
  %59 = load ptr, ptr %58, align 8
  call void %59(ptr noundef nonnull align 8 dereferenceable(8) %55, ptr noundef %56)
  %60 = load ptr, ptr %4, align 8
  %61 = getelementptr inbounds %"class.gmx::AwhDimParams", ptr %6, i32 0, i32 8
  %62 = load ptr, ptr %60, align 8
  %63 = getelementptr inbounds ptr, ptr %62, i64 11
  %64 = load ptr, ptr %63, align 8
  call void %64(ptr noundef nonnull align 8 dereferenceable(8) %60, ptr noundef %61)
  ret void
}