; Function Attrs: mustprogress uwtable
define void @_ZN3gmx12AwhDimParamsC2EPNS_11ISerializerE(ptr noundef nonnull align 8 dereferenceable(64) %0, ptr noundef %1) unnamed_addr #4 align 2 {
  %3 = alloca i32, align 4
  %4 = getelementptr inbounds i8, ptr %0, i64 4
  tail call void @llvm.memset.p0.i64(ptr noundef nonnull align 4 dereferenceable(60) %4, i8 0, i64 60, i1 false)
  %5 = load ptr, ptr %1, align 8
  %6 = getelementptr inbounds i8, ptr %5, i64 16
  %7 = load ptr, ptr %6, align 8
  %8 = tail call noundef zeroext i1 %7(ptr noundef nonnull align 8 dereferenceable(8) %1)
  br i1 %8, label %10, label %9

9:                                                ; preds = %2
  tail call void @_ZN3gmx8internal13assertHandlerEPKcS2_S2_S2_i(ptr noundef nonnull @.str.36, ptr noundef nonnull @.str.37, ptr noundef nonnull @"__PRETTY_FUNCTION__._ZZN3gmx12AwhDimParamsC1EPNS_11ISerializerEENK3$_0clEv", ptr noundef nonnull @.str.38, i32 noundef 724) #23
  unreachable

10:                                               ; preds = %2
  %11 = getelementptr inbounds i8, ptr %0, i64 56
  %12 = getelementptr inbounds i8, ptr %0, i64 48
  %13 = getelementptr inbounds i8, ptr %0, i64 40
  %14 = getelementptr inbounds i8, ptr %0, i64 32
  %15 = getelementptr inbounds i8, ptr %0, i64 24
  %16 = getelementptr inbounds i8, ptr %0, i64 16
  %17 = getelementptr inbounds i8, ptr %0, i64 8
  call void @llvm.lifetime.start.p0(i64 4, ptr nonnull %3)
  %18 = load i32, ptr %0, align 8
  store i32 %18, ptr %3, align 4
  %19 = load ptr, ptr %1, align 8
  %20 = getelementptr inbounds i8, ptr %19, i64 56
  %21 = load ptr, ptr %20, align 8
  call void %21(ptr noundef nonnull align 8 dereferenceable(8) %1, ptr noundef nonnull %3)
  %22 = load i32, ptr %3, align 4
  store i32 %22, ptr %0, align 8
  call void @llvm.lifetime.end.p0(i64 4, ptr nonnull %3)
  %23 = load ptr, ptr %1, align 8
  %24 = getelementptr inbounds i8, ptr %23, i64 56
  %25 = load ptr, ptr %24, align 8
  call void %25(ptr noundef nonnull align 8 dereferenceable(8) %1, ptr noundef nonnull %4)
  %26 = load ptr, ptr %1, align 8
  %27 = getelementptr inbounds i8, ptr %26, i64 88
  %28 = load ptr, ptr %27, align 8
  call void %28(ptr noundef nonnull align 8 dereferenceable(8) %1, ptr noundef nonnull %17)
  %29 = load ptr, ptr %1, align 8
  %30 = getelementptr inbounds i8, ptr %29, i64 88
  %31 = load ptr, ptr %30, align 8
  call void %31(ptr noundef nonnull align 8 dereferenceable(8) %1, ptr noundef nonnull %16)
  %32 = load ptr, ptr %1, align 8
  %33 = getelementptr inbounds i8, ptr %32, i64 88
  %34 = load ptr, ptr %33, align 8
  call void %34(ptr noundef nonnull align 8 dereferenceable(8) %1, ptr noundef nonnull %15)
  %35 = load ptr, ptr %1, align 8
  %36 = getelementptr inbounds i8, ptr %35, i64 88
  %37 = load ptr, ptr %36, align 8
  call void %37(ptr noundef nonnull align 8 dereferenceable(8) %1, ptr noundef nonnull %14)
  %38 = load ptr, ptr %1, align 8
  %39 = getelementptr inbounds i8, ptr %38, i64 88
  %40 = load ptr, ptr %39, align 8
  call void %40(ptr noundef nonnull align 8 dereferenceable(8) %1, ptr noundef nonnull %13)
  %41 = load ptr, ptr %1, align 8
  %42 = getelementptr inbounds i8, ptr %41, i64 88
  %43 = load ptr, ptr %42, align 8
  call void %43(ptr noundef nonnull align 8 dereferenceable(8) %1, ptr noundef nonnull %12)
  %44 = load ptr, ptr %1, align 8
  %45 = getelementptr inbounds i8, ptr %44, i64 88
  %46 = load ptr, ptr %45, align 8
  call void %46(ptr noundef nonnull align 8 dereferenceable(8) %1, ptr noundef nonnull %11)
  ret void
}